; Function Attrs: mustprogress uwtable
define noundef zeroext i1 @_ZN19OpenColorIO_v2_5devneERKNS_19GradingBSplineCurveES2_(ptr noundef nonnull align 8 dereferenceable(8) %0, ptr noundef nonnull align 8 dereferenceable(8) %1) local_unnamed_addr #0 {
  %3 = load ptr, ptr %0, align 8, !tbaa !26
  %4 = getelementptr inbounds nuw i8, ptr %3, i64 8
  %5 = load ptr, ptr %4, align 8
  %6 = tail call noundef i64 %5(ptr noundef nonnull align 8 dereferenceable(8) %0) #22
  %7 = load ptr, ptr %1, align 8, !tbaa !26
  %8 = getelementptr inbounds nuw i8, ptr %7, i64 8
  %9 = load ptr, ptr %8, align 8
  %10 = tail call noundef i64 %9(ptr noundef nonnull align 8 dereferenceable(8) %1) #22
  %11 = icmp eq i64 %6, %10
  br i1 %11, label %.preheader.i, label %_ZN19OpenColorIO_v2_5deveqERKNS_19GradingBSplineCurveES2_.exit

.preheader.i:                                     ; preds = %2
  %.not14.i = icmp eq i64 %6, 0
  br i1 %.not14.i, label %_ZN19OpenColorIO_v2_5deveqERKNS_19GradingBSplineCurveES2_.exit, label %.lr.ph.i

.lr.ph.i:                                         ; preds = %.preheader.i, %.lr.ph.i
  %.01115.i = phi i64 [ %28, %.lr.ph.i ], [ 0, %.preheader.i ]
  %12 = load ptr, ptr %0, align 8, !tbaa !26
  %13 = getelementptr inbounds nuw i8, ptr %12, i64 24
  %14 = load ptr, ptr %13, align 8
  %15 = tail call noundef nonnull align 4 dereferenceable(8) ptr %14(ptr noundef nonnull align 8 dereferenceable(8) %0, i64 noundef %.01115.i)
  %16 = load ptr, ptr %1, align 8, !tbaa !26
  %17 = getelementptr inbounds nuw i8, ptr %16, i64 24
  %18 = load ptr, ptr %17, align 8
  %19 = tail call noundef nonnull align 4 dereferenceable(8) ptr %18(ptr noundef nonnull align 8 dereferenceable(8) %1, i64 noundef %.01115.i)
  %20 = load float, ptr %15, align 4, !tbaa !63
  %21 = load float, ptr %19, align 4, !tbaa !63
  %22 = fcmp une float %20, %21
  %23 = getelementptr inbounds nuw i8, ptr %15, i64 4
  %24 = load float, ptr %23, align 4
  %25 = getelementptr inbounds nuw i8, ptr %19, i64 4
  %26 = load float, ptr %25, align 4
  %27 = fcmp une float %24, %26
  %.not3.i.not.i.not = select i1 %22, i1 true, i1 %27
  %28 = add nuw i64 %.01115.i, 1
  %exitcond.not.i = icmp eq i64 %28, %6
  %or.cond = select i1 %.not3.i.not.i.not, i1 true, i1 %exitcond.not.i
  br i1 %or.cond, label %_ZN19OpenColorIO_v2_5deveqERKNS_19GradingBSplineCurveES2_.exit, label %.lr.ph.i, !llvm.loop !81

_ZN19OpenColorIO_v2_5deveqERKNS_19GradingBSplineCurveES2_.exit: ; preds = %.lr.ph.i, %2, %.preheader.i
  %29 = phi i1 [ true, %2 ], [ false, %.preheader.i ], [ %.not3.i.not.i.not, %.lr.ph.i ]
  ret i1 %29
}